target datalayout = "e-m:e-p270:32:32-p271:32:32-p272:64:64-i64:64-i128:128-f80:128-n8:16:32:64-S128"
target triple = "x86_64-pc-linux-gnu"

%struct.HeapTupleData = type { i32, %struct.ItemPointerData, i32, ptr }
%struct.ItemPointerData = type { %struct.BlockIdData, i16 }
%struct.BlockIdData = type { i16, i16 }
%struct.ExpandedArrayHeader = type { %struct.ExpandedObjectHeader, i32, i32, ptr, ptr, i32, i16, i8, i8, ptr, ptr, i32, i32, i64, ptr, ptr, ptr }
%struct.ExpandedObjectHeader = type { i32, ptr, ptr, [10 x i8], [10 x i8] }
%struct.anon = type { i32, [0 x i8] }

@.str.2 = private unnamed_addr constant [17 x i8] c"extended_stats.c\00", align 1
@.str.6 = private unnamed_addr constant [45 x i8] c"cache lookup failed for statistics object %u\00", align 1
@__func__.statext_expressions_load = private unnamed_addr constant [25 x i8] c"statext_expressions_load\00", align 1
@.str.7 = private unnamed_addr constant [73 x i8] c"requested statistics kind \22%c\22 is not yet built for statistics object %u\00", align 1

; Function Attrs: inlinehint nounwind uwtable
define internal void @BlockIdSet(ptr noundef %0, i32 noundef %1) #3 {
  %3 = alloca ptr, align 8
  %4 = alloca i32, align 4
  store ptr %0, ptr %3, align 8
  store i32 %1, ptr %4, align 4
  %5 = load i32, ptr %4, align 4
  %6 = lshr i32 %5, 16
  %7 = trunc i32 %6 to i16
  %8 = load ptr, ptr %3, align 8
  %9 = getelementptr inbounds nuw %struct.BlockIdData, ptr %8, i32 0, i32 0
  store i16 %7, ptr %9, align 2
  %10 = load i32, ptr %4, align 4
  %11 = and i32 %10, 65535
  %12 = trunc i32 %11 to i16
  %13 = load ptr, ptr %3, align 8
  %14 = getelementptr inbounds nuw %struct.BlockIdData, ptr %13, i32 0, i32 1
  store i16 %12, ptr %14, align 2
  ret void
}

; Function Attrs: inlinehint nounwind uwtable
define internal void @ItemPointerSetInvalid(ptr noundef %0) #3 {
  %2 = alloca ptr, align 8
  store ptr %0, ptr %2, align 8
  %3 = load ptr, ptr %2, align 8
  %4 = getelementptr inbounds nuw %struct.ItemPointerData, ptr %3, i32 0, i32 0
  call void @BlockIdSet(ptr noundef %4, i32 noundef -1)
  %5 = load ptr, ptr %2, align 8
  %6 = getelementptr inbounds nuw %struct.ItemPointerData, ptr %5, i32 0, i32 1
  store i16 0, ptr %6, align 2
  ret void
}

; Function Attrs: inlinehint nounwind uwtable
define internal i32 @HeapTupleHeaderGetDatumLength(ptr noundef %0) #3 {
  %2 = alloca ptr, align 8
  store ptr %0, ptr %2, align 8
  %3 = load ptr, ptr %2, align 8
  %4 = getelementptr inbounds nuw %struct.anon, ptr %3, i32 0, i32 0
  %5 = load i32, ptr %4, align 4
  %6 = lshr i32 %5, 2
  %7 = and i32 %6, 1073741823
  ret i32 %7
}

; Function Attrs: inlinehint nounwind uwtable
define internal ptr @DatumGetPointer(i64 noundef %0) #3 {
  %2 = alloca i64, align 8
  store i64 %0, ptr %2, align 8
  %3 = load i64, ptr %2, align 8
  %4 = inttoptr i64 %3 to ptr
  ret ptr %4
}

; Function Attrs: inlinehint nounwind uwtable
define internal i64 @BoolGetDatum(i1 noundef zeroext %0) #3 {
  %2 = alloca i8, align 1
  %3 = zext i1 %0 to i8
  store i8 %3, ptr %2, align 1
  %4 = load i8, ptr %2, align 1, !range !6, !noundef !7
  %5 = trunc i8 %4 to i1
  %6 = select i1 %5, i32 1, i32 0
  %7 = sext i32 %6 to i64
  ret i64 %7
}

; Function Attrs: inlinehint nounwind uwtable
define internal i64 @ObjectIdGetDatum(i32 noundef %0) #3 {
  %2 = alloca i32, align 4
  store i32 %0, ptr %2, align 4
  %3 = load i32, ptr %2, align 4
  %4 = zext i32 %3 to i64
  ret i64 %4
}

; Function Attrs: nounwind uwtable
define dso_local ptr @statext_expressions_load(i32 noundef %0, i1 noundef zeroext %1, i32 noundef %2) #0 {
  %4 = alloca i32, align 4
  %5 = alloca i8, align 1
  %6 = alloca i32, align 4
  %7 = alloca i8, align 1
  %8 = alloca i64, align 8
  %9 = alloca ptr, align 8
  %10 = alloca ptr, align 8
  %11 = alloca ptr, align 8
  %12 = alloca %struct.HeapTupleData, align 8
  %13 = alloca ptr, align 8
  store i32 %0, ptr %4, align 4
  %14 = zext i1 %1 to i8
  store i8 %14, ptr %5, align 1
  store i32 %2, ptr %6, align 4
  call void @llvm.lifetime.start.p0(i64 1, ptr %7) #8
  call void @llvm.lifetime.start.p0(i64 8, ptr %8) #8
  call void @llvm.lifetime.start.p0(i64 8, ptr %9) #8
  call void @llvm.lifetime.start.p0(i64 8, ptr %10) #8
  call void @llvm.lifetime.start.p0(i64 8, ptr %11) #8
  call void @llvm.lifetime.start.p0(i64 24, ptr %12) #8
  call void @llvm.lifetime.start.p0(i64 8, ptr %13) #8
  %15 = load i32, ptr %4, align 4
  %16 = call i64 @ObjectIdGetDatum(i32 noundef %15)
  %17 = load i8, ptr %5, align 1, !range !6, !noundef !7
  %18 = trunc i8 %17 to i1
  %19 = call i64 @BoolGetDatum(i1 noundef zeroext %18)
  %20 = call ptr @SearchSysCache2(i32 noundef 62, i64 noundef %16, i64 noundef %19)
  store ptr %20, ptr %9, align 8
  %21 = load ptr, ptr %9, align 8
  %22 = icmp ne ptr %21, null
  br i1 %22, label %35, label %23

23:                                               ; preds = %3
  br label %24

24:                                               ; preds = %23
  br i1 true, label %25, label %27

25:                                               ; preds = %24
  %26 = call zeroext i1 @errstart_cold(i32 noundef 21, ptr noundef null) #9
  br i1 %26, label %29, label %32

27:                                               ; preds = %24
  %28 = call zeroext i1 @errstart(i32 noundef 21, ptr noundef null)
  br i1 %28, label %29, label %32

29:                                               ; preds = %27, %25
  %30 = load i32, ptr %4, align 4
  %31 = call i32 (ptr, ...) @errmsg_internal(ptr noundef @.str.6, i32 noundef %30)
  call void @errfinish(ptr noundef @.str.2, i32 noundef 2434, ptr noundef @__func__.statext_expressions_load)
  br label %32

32:                                               ; preds = %29, %27, %25
  unreachable

33:                                               ; No predecessors!
  br label %34

34:                                               ; preds = %33
  br label %35

35:                                               ; preds = %34, %3
  %36 = load ptr, ptr %9, align 8
  %37 = call i64 @SysCacheGetAttr(i32 noundef 62, ptr noundef %36, i16 noundef signext 6, ptr noundef %7)
  store i64 %37, ptr %8, align 8
  %38 = load i8, ptr %7, align 1, !range !6, !noundef !7
  %39 = trunc i8 %38 to i1
  br i1 %39, label %40, label %52

40:                                               ; preds = %35
  br label %41

41:                                               ; preds = %40
  br i1 true, label %42, label %44

42:                                               ; preds = %41
  %43 = call zeroext i1 @errstart_cold(i32 noundef 21, ptr noundef null) #9
  br i1 %43, label %46, label %49

44:                                               ; preds = %41
  %45 = call zeroext i1 @errstart(i32 noundef 21, ptr noundef null)
  br i1 %45, label %46, label %49

46:                                               ; preds = %44, %42
  %47 = load i32, ptr %4, align 4
  %48 = call i32 (ptr, ...) @errmsg_internal(ptr noundef @.str.7, i32 noundef 101, i32 noundef %47)
  call void @errfinish(ptr noundef @.str.2, i32 noundef 2441, ptr noundef @__func__.statext_expressions_load)
  br label %49

49:                                               ; preds = %46, %44, %42
  unreachable

50:                                               ; No predecessors!
  br label %51

51:                                               ; preds = %50
  br label %52

52:                                               ; preds = %51, %35
  %53 = load i64, ptr %8, align 8
  %54 = call ptr @DatumGetExpandedArray(i64 noundef %53)
  store ptr %54, ptr %10, align 8
  %55 = load ptr, ptr %10, align 8
  call void @deconstruct_expanded_array(ptr noundef %55)
  %56 = load ptr, ptr %10, align 8
  %57 = getelementptr inbounds nuw %struct.ExpandedArrayHeader, ptr %56, i32 0, i32 9
  %58 = load ptr, ptr %57, align 8
  %59 = load i32, ptr %6, align 4
  %60 = sext i32 %59 to i64
  %61 = getelementptr inbounds i64, ptr %58, i64 %60
  %62 = load i64, ptr %61, align 8
  %63 = call ptr @DatumGetPointer(i64 noundef %62)
  %64 = call ptr @pg_detoast_datum(ptr noundef %63)
  store ptr %64, ptr %11, align 8
  %65 = load ptr, ptr %11, align 8
  %66 = call i32 @HeapTupleHeaderGetDatumLength(ptr noundef %65)
  %67 = getelementptr inbounds nuw %struct.HeapTupleData, ptr %12, i32 0, i32 0
  store i32 %66, ptr %67, align 8
  %68 = getelementptr inbounds nuw %struct.HeapTupleData, ptr %12, i32 0, i32 1
  call void @ItemPointerSetInvalid(ptr noundef %68)
  %69 = getelementptr inbounds nuw %struct.HeapTupleData, ptr %12, i32 0, i32 2
  store i32 0, ptr %69, align 4
  %70 = load ptr, ptr %11, align 8
  %71 = getelementptr inbounds nuw %struct.HeapTupleData, ptr %12, i32 0, i32 3
  store ptr %70, ptr %71, align 8
  %72 = call ptr @heap_copytuple(ptr noundef %12)
  store ptr %72, ptr %13, align 8
  %73 = load ptr, ptr %9, align 8
  call void @ReleaseSysCache(ptr noundef %73)
  %74 = load ptr, ptr %13, align 8
  call void @llvm.lifetime.end.p0(i64 8, ptr %13) #8
  call void @llvm.lifetime.end.p0(i64 24, ptr %12) #8
  call void @llvm.lifetime.end.p0(i64 8, ptr %11) #8
  call void @llvm.lifetime.end.p0(i64 8, ptr %10) #8
  call void @llvm.lifetime.end.p0(i64 8, ptr %9) #8
  call void @llvm.lifetime.end.p0(i64 8, ptr %8) #8
  call void @llvm.lifetime.end.p0(i64 1, ptr %7) #8
  ret ptr %74
}