; Function Attrs: nounwind uwtable
define dso_local ptr @statext_expressions_load(i32 noundef %0, i1 noundef zeroext %1, i32 noundef %2) local_unnamed_addr #0 {
  %4 = alloca i8, align 1
  %5 = alloca %struct.HeapTupleData, align 8
  call void @llvm.lifetime.start.p0(i64 1, ptr nonnull %4) #10
  call void @llvm.lifetime.start.p0(i64 24, ptr nonnull %5) #10
  %6 = zext i32 %0 to i64
  %7 = zext i1 %1 to i64
  %8 = tail call ptr @SearchSysCache2(i32 noundef 62, i64 noundef %6, i64 noundef %7) #10
  %.not = icmp eq ptr %8, null
  br i1 %.not, label %9, label %12

9:                                                ; preds = %3
  %10 = tail call zeroext i1 @errstart_cold(i32 noundef 21, ptr noundef null) #11
  tail call void @llvm.assume(i1 %10)
  %11 = tail call i32 (ptr, ...) @errmsg_internal(ptr noundef nonnull @.str.6, i32 noundef %0) #10
  tail call void @errfinish(ptr noundef nonnull @.str.2, i32 noundef 2434, ptr noundef nonnull @__func__.statext_expressions_load) #10
  unreachable

12:                                               ; preds = %3
  %13 = call i64 @SysCacheGetAttr(i32 noundef 62, ptr noundef nonnull %8, i16 noundef signext 6, ptr noundef nonnull %4) #10
  %14 = load i8, ptr %4, align 1, !range !8, !noundef !9
  %15 = trunc nuw i8 %14 to i1
  br i1 %15, label %16, label %19

16:                                               ; preds = %12
  %17 = call zeroext i1 @errstart_cold(i32 noundef 21, ptr noundef null) #11
  call void @llvm.assume(i1 %17)
  %18 = call i32 (ptr, ...) @errmsg_internal(ptr noundef nonnull @.str.7, i32 noundef 101, i32 noundef %0) #10
  call void @errfinish(ptr noundef nonnull @.str.2, i32 noundef 2441, ptr noundef nonnull @__func__.statext_expressions_load) #10
  unreachable

19:                                               ; preds = %12
  %20 = call ptr @DatumGetExpandedArray(i64 noundef %13) #10
  call void @deconstruct_expanded_array(ptr noundef %20) #10
  %21 = getelementptr inbounds nuw i8, ptr %20, i64 80
  %22 = load ptr, ptr %21, align 8
  %23 = sext i32 %2 to i64
  %24 = getelementptr inbounds i64, ptr %22, i64 %23
  %25 = load i64, ptr %24, align 8
  %26 = inttoptr i64 %25 to ptr
  %27 = call ptr @pg_detoast_datum(ptr noundef %26) #10
  %.val = load i32, ptr %27, align 4
  %28 = lshr i32 %.val, 2
  store i32 %28, ptr %5, align 8
  %29 = getelementptr inbounds nuw i8, ptr %5, i64 4
  store i16 -1, ptr %29, align 4
  %30 = getelementptr inbounds nuw i8, ptr %5, i64 6
  store i16 -1, ptr %30, align 2
  %31 = getelementptr inbounds nuw i8, ptr %5, i64 8
  store i16 0, ptr %31, align 8
  %32 = getelementptr inbounds nuw i8, ptr %5, i64 12
  store i32 0, ptr %32, align 4
  %33 = getelementptr inbounds nuw i8, ptr %5, i64 16
  store ptr %27, ptr %33, align 8
  %34 = call ptr @heap_copytuple(ptr noundef nonnull %5) #10
  call void @ReleaseSysCache(ptr noundef nonnull %8) #10
  call void @llvm.lifetime.end.p0(i64 24, ptr nonnull %5) #10
  call void @llvm.lifetime.end.p0(i64 1, ptr nonnull %4) #10
  ret ptr %34
}